; ModuleID = '51/1083.c'
source_filename = "51/1083.c"
target datalayout = "e-m:e-p270:32:32-p271:32:32-p272:64:64-i64:64-f80:128-n8:16:32:64-S128"
target triple = "x86_64-pc-linux-gnu"

@.str = private unnamed_addr constant [3 x i8] c"%d\00", align 1
@.str.1 = private unnamed_addr constant [3 x i8] c"%s\00", align 1
@.str.2 = private unnamed_addr constant [3 x i8] c"NO\00", align 1
@.str.3 = private unnamed_addr constant [4 x i8] c"%d\0A\00", align 1
@.str.4 = private unnamed_addr constant [3 x i8] c"%c\00", align 1
@.str.5 = private unnamed_addr constant [2 x i8] c"\0A\00", align 1

; Function Attrs: noinline nounwind uwtable
define dso_local i32 @main() #0 {
  %1 = alloca i32, align 4
  %2 = alloca i32, align 4
  %3 = alloca i32, align 4
  %4 = alloca i32, align 4
  %5 = alloca [500 x i32], align 16
  %6 = alloca i32, align 4
  %7 = alloca i32, align 4
  %8 = alloca [1000 x i8], align 16
  %9 = alloca [500 x [6 x i8]], align 16
  %10 = alloca i32, align 4
  %11 = alloca i32, align 4
  %12 = alloca i32, align 4
  %13 = alloca i32, align 4
  %14 = alloca i32, align 4
  %15 = alloca i32, align 4
  %16 = alloca i32, align 4
  %17 = alloca i32, align 4
  store i32 0, i32* %1, align 4
  store i32 0, i32* %4, align 4
  %18 = bitcast [500 x i32]* %5 to i8*
  call void @llvm.memset.p0i8.i64(i8* align 16 %18, i8 0, i64 2000, i1 false)
  store i32 0, i32* %6, align 4
  store i32 0, i32* %7, align 4
  %19 = call i32 (i8*, ...) @__isoc99_scanf(i8* getelementptr inbounds ([3 x i8], [3 x i8]* @.str, i64 0, i64 0), i32* %2)
  %20 = getelementptr inbounds [1000 x i8], [1000 x i8]* %8, i64 0, i64 0
  %21 = call i32 (i8*, ...) @__isoc99_scanf(i8* getelementptr inbounds ([3 x i8], [3 x i8]* @.str.1, i64 0, i64 0), i8* %20)
  %22 = getelementptr inbounds [1000 x i8], [1000 x i8]* %8, i64 0, i64 0
  %23 = call i64 @strlen(i8* %22) #4
  %24 = trunc i64 %23 to i32
  store i32 %24, i32* %3, align 4
  store i32 0, i32* %10, align 4
  br label %25

25:                                               ; preds = %54, %0
  %26 = load i32, i32* %10, align 4
  %27 = load i32, i32* %3, align 4
  %28 = icmp slt i32 %26, %27
  br i1 %28, label %29, label %57

29:                                               ; preds = %25
  %30 = load i32, i32* %10, align 4
  store i32 %30, i32* %11, align 4
  br label %31

31:                                               ; preds = %50, %29
  %32 = load i32, i32* %11, align 4
  %33 = load i32, i32* %10, align 4
  %34 = sub nsw i32 %32, %33
  %35 = load i32, i32* %2, align 4
  %36 = icmp slt i32 %34, %35
  br i1 %36, label %37, label %53

37:                                               ; preds = %31
  %38 = load i32, i32* %11, align 4
  %39 = sext i32 %38 to i64
  %40 = getelementptr inbounds [1000 x i8], [1000 x i8]* %8, i64 0, i64 %39
  %41 = load i8, i8* %40, align 1
  %42 = load i32, i32* %10, align 4
  %43 = sext i32 %42 to i64
  %44 = getelementptr inbounds [500 x [6 x i8]], [500 x [6 x i8]]* %9, i64 0, i64 %43
  %45 = load i32, i32* %11, align 4
  %46 = load i32, i32* %10, align 4
  %47 = sub nsw i32 %45, %46
  %48 = sext i32 %47 to i64
  %49 = getelementptr inbounds [6 x i8], [6 x i8]* %44, i64 0, i64 %48
  store i8 %41, i8* %49, align 1
  br label %50

50:                                               ; preds = %37
  %51 = load i32, i32* %11, align 4
  %52 = add nsw i32 %51, 1
  store i32 %52, i32* %11, align 4
  br label %31

53:                                               ; preds = %31
  br label %54

54:                                               ; preds = %53
  %55 = load i32, i32* %10, align 4
  %56 = add nsw i32 %55, 1
  store i32 %56, i32* %10, align 4
  br label %25

57:                                               ; preds = %25
  store i32 0, i32* %12, align 4
  br label %58

58:                                               ; preds = %116, %57
  %59 = load i32, i32* %12, align 4
  %60 = load i32, i32* %3, align 4
  %61 = icmp slt i32 %59, %60
  br i1 %61, label %62, label %119

62:                                               ; preds = %58
  store i32 0, i32* %13, align 4
  br label %63

63:                                               ; preds = %112, %62
  %64 = load i32, i32* %13, align 4
  %65 = load i32, i32* %12, align 4
  %66 = add nsw i32 %64, %65
  %67 = load i32, i32* %3, align 4
  %68 = icmp slt i32 %66, %67
  br i1 %68, label %69, label %115

69:                                               ; preds = %63
  store i32 0, i32* %14, align 4
  br label %70

70:                                               ; preds = %108, %69
  %71 = load i32, i32* %14, align 4
  %72 = load i32, i32* %2, align 4
  %73 = icmp slt i32 %71, %72
  br i1 %73, label %74, label %111

74:                                               ; preds = %70
  %75 = load i32, i32* %12, align 4
  %76 = sext i32 %75 to i64
  %77 = getelementptr inbounds [500 x [6 x i8]], [500 x [6 x i8]]* %9, i64 0, i64 %76
  %78 = load i32, i32* %14, align 4
  %79 = sext i32 %78 to i64
  %80 = getelementptr inbounds [6 x i8], [6 x i8]* %77, i64 0, i64 %79
  %81 = load i8, i8* %80, align 1
  %82 = sext i8 %81 to i32
  %83 = load i32, i32* %12, align 4
  %84 = load i32, i32* %13, align 4
  %85 = add nsw i32 %83, %84
  %86 = sext i32 %85 to i64
  %87 = getelementptr inbounds [500 x [6 x i8]], [500 x [6 x i8]]* %9, i64 0, i64 %86
  %88 = load i32, i32* %14, align 4
  %89 = sext i32 %88 to i64
  %90 = getelementptr inbounds [6 x i8], [6 x i8]* %87, i64 0, i64 %89
  %91 = load i8, i8* %90, align 1
  %92 = sext i8 %91 to i32
  %93 = icmp eq i32 %82, %92
  br i1 %93, label %94, label %97

94:                                               ; preds = %74
  %95 = load i32, i32* %4, align 4
  %96 = add nsw i32 %95, 1
  store i32 %96, i32* %4, align 4
  br label %97

97:                                               ; preds = %94, %74
  %98 = load i32, i32* %4, align 4
  %99 = load i32, i32* %2, align 4
  %100 = icmp eq i32 %98, %99
  br i1 %100, label %101, label %107

101:                                              ; preds = %97
  %102 = load i32, i32* %12, align 4
  %103 = sext i32 %102 to i64
  %104 = getelementptr inbounds [500 x i32], [500 x i32]* %5, i64 0, i64 %103
  %105 = load i32, i32* %104, align 4
  %106 = add nsw i32 %105, 1
  store i32 %106, i32* %104, align 4
  br label %107

107:                                              ; preds = %101, %97
  br label %108

108:                                              ; preds = %107
  %109 = load i32, i32* %14, align 4
  %110 = add nsw i32 %109, 1
  store i32 %110, i32* %14, align 4
  br label %70

111:                                              ; preds = %70
  store i32 0, i32* %4, align 4
  br label %112

112:                                              ; preds = %111
  %113 = load i32, i32* %13, align 4
  %114 = add nsw i32 %113, 1
  store i32 %114, i32* %13, align 4
  br label %63

115:                                              ; preds = %63
  br label %116

116:                                              ; preds = %115
  %117 = load i32, i32* %12, align 4
  %118 = add nsw i32 %117, 1
  store i32 %118, i32* %12, align 4
  br label %58

119:                                              ; preds = %58
  store i32 0, i32* %15, align 4
  br label %120

120:                                              ; preds = %137, %119
  %121 = load i32, i32* %15, align 4
  %122 = load i32, i32* %3, align 4
  %123 = icmp slt i32 %121, %122
  br i1 %123, label %124, label %140

124:                                              ; preds = %120
  %125 = load i32, i32* %15, align 4
  %126 = sext i32 %125 to i64
  %127 = getelementptr inbounds [500 x i32], [500 x i32]* %5, i64 0, i64 %126
  %128 = load i32, i32* %127, align 4
  %129 = load i32, i32* %6, align 4
  %130 = icmp sgt i32 %128, %129
  br i1 %130, label %131, label %136

131:                                              ; preds = %124
  %132 = load i32, i32* %15, align 4
  %133 = sext i32 %132 to i64
  %134 = getelementptr inbounds [500 x i32], [500 x i32]* %5, i64 0, i64 %133
  %135 = load i32, i32* %134, align 4
  store i32 %135, i32* %6, align 4
  br label %136

136:                                              ; preds = %131, %124
  br label %137

137:                                              ; preds = %136
  %138 = load i32, i32* %15, align 4
  %139 = add nsw i32 %138, 1
  store i32 %139, i32* %15, align 4
  br label %120

140:                                              ; preds = %120
  %141 = load i32, i32* %6, align 4
  %142 = icmp eq i32 %141, 0
  br i1 %142, label %146, label %143

143:                                              ; preds = %140
  %144 = load i32, i32* %6, align 4
  %145 = icmp eq i32 %144, 1
  br i1 %145, label %146, label %148

146:                                              ; preds = %143, %140
  %147 = call i32 (i8*, ...) @printf(i8* getelementptr inbounds ([3 x i8], [3 x i8]* @.str.2, i64 0, i64 0))
  br label %188

148:                                              ; preds = %143
  %149 = load i32, i32* %6, align 4
  %150 = call i32 (i8*, ...) @printf(i8* getelementptr inbounds ([4 x i8], [4 x i8]* @.str.3, i64 0, i64 0), i32 %149)
  br label %151

151:                                              ; preds = %148
  store i32 0, i32* %16, align 4
  br label %152

152:                                              ; preds = %184, %151
  %153 = load i32, i32* %16, align 4
  %154 = load i32, i32* %3, align 4
  %155 = icmp slt i32 %153, %154
  br i1 %155, label %156, label %187

156:                                              ; preds = %152
  %157 = load i32, i32* %6, align 4
  %158 = load i32, i32* %16, align 4
  %159 = sext i32 %158 to i64
  %160 = getelementptr inbounds [500 x i32], [500 x i32]* %5, i64 0, i64 %159
  %161 = load i32, i32* %160, align 4
  %162 = icmp eq i32 %157, %161
  br i1 %162, label %163, label %182

163:                                              ; preds = %156
  store i32 0, i32* %17, align 4
  br label %164

164:                                              ; preds = %178, %163
  %165 = load i32, i32* %17, align 4
  %166 = load i32, i32* %2, align 4
  %167 = icmp slt i32 %165, %166
  br i1 %167, label %168, label %181

168:                                              ; preds = %164
  %169 = load i32, i32* %16, align 4
  %170 = sext i32 %169 to i64
  %171 = getelementptr inbounds [500 x [6 x i8]], [500 x [6 x i8]]* %9, i64 0, i64 %170
  %172 = load i32, i32* %17, align 4
  %173 = sext i32 %172 to i64
  %174 = getelementptr inbounds [6 x i8], [6 x i8]* %171, i64 0, i64 %173
  %175 = load i8, i8* %174, align 1
  %176 = sext i8 %175 to i32
  %177 = call i32 (i8*, ...) @printf(i8* getelementptr inbounds ([3 x i8], [3 x i8]* @.str.4, i64 0, i64 0), i32 %176)
  br label %178

178:                                              ; preds = %168
  %179 = load i32, i32* %17, align 4
  %180 = add nsw i32 %179, 1
  store i32 %180, i32* %17, align 4
  br label %164

181:                                              ; preds = %164
  br label %182

182:                                              ; preds = %181, %156
  %183 = call i32 (i8*, ...) @printf(i8* getelementptr inbounds ([2 x i8], [2 x i8]* @.str.5, i64 0, i64 0))
  br label %184

184:                                              ; preds = %182
  %185 = load i32, i32* %16, align 4
  %186 = add nsw i32 %185, 1
  store i32 %186, i32* %16, align 4
  br label %152

187:                                              ; preds = %152
  br label %188

188:                                              ; preds = %187, %146
  ret i32 0
}

; Function Attrs: argmemonly nounwind willreturn
declare void @llvm.memset.p0i8.i64(i8* nocapture writeonly, i8, i64, i1 immarg) #1

declare dso_local i32 @__isoc99_scanf(i8*, ...) #2

; Function Attrs: nounwind readonly
declare dso_local i64 @strlen(i8*) #3

declare dso_local i32 @printf(i8*, ...) #2


!llvm.module.flags = !{!0}
!llvm.ident = !{!1}

!0 = !{i32 1, !"wchar_size", i32 4}
!1 = !{!"clang version 10.0.0-4ubuntu1 "}
